target datalayout = "e-m:e-p270:32:32-p271:32:32-p272:64:64-i64:64-i128:128-f80:128-n8:16:32:64-S128"
target triple = "x86_64-pc-linux-gnu"

%struct._VAConfigAttrib = type { i32, i32 }
%struct.AVCodecContext = type { ptr, i32, i32, ptr, i32, i32, ptr, ptr, ptr, i64, i32, i32, ptr, i32, %struct.AVRational, %struct.AVRational, %struct.AVRational, i32, i32, i32, i32, i32, %struct.AVRational, i32, i32, i32, i32, i32, i32, i32, i32, i32, i32, i32, ptr, ptr, i32, float, float, float, float, float, float, float, float, float, i32, i32, i32, i32, i32, i32, i32, i32, i32, i32, i32, i32, ptr, ptr, ptr, i32, i32, i32, i32, i32, i32, i32, i32, i32, i32, %struct.AVChannelLayout, i32, i32, i32, i32, i32, i32, i32, i32, ptr, i32, i32, i32, float, float, i32, i32, i32, i32, i32, ptr, i64, i64, float, float, i32, i32, ptr, ptr, i32, i32, i32, i32, i32, ptr, ptr, ptr, ptr, i32, i32, [8 x i64], i32, i32, i32, i32, i32, i32, i32, ptr, ptr, i32, i32, i32, i32, i32, i32, i32, i32, i32, i32, ptr, ptr, i32, i32, ptr, ptr, ptr, ptr, i32, i32, i64, i32, i32, i64, ptr, i64, ptr, i32, ptr, i32 }
%struct.AVRational = type { i32, i32 }
%struct.AVChannelLayout = type { i32, i32, %union.anon, ptr }
%union.anon = type { i64 }
%struct.VAAPIEncodeContext = type { %struct.FFHWBaseEncodeContext, ptr, i32, i32, i32, i32, i32, i32, ptr, ptr, i32, i32, i32, i32, i32, i32, [4 x %struct._VAConfigAttrib], i32, i32, i32, ptr, ptr, [4 x i32], [4 x ptr], [4 x i64], i32, %struct._VAEncMiscParameterRateControl, %struct._VAEncMiscParameterHRD, %struct._VAEncMiscParameterFrameRate, %struct._VAEncMiscParameterBufferMaxFrameSize, %struct._VAEncMiscParameterBufferQualityLevel, ptr, ptr, i32, i32, i32, i32, i32, i32, [20 x i32], [22 x i32], [21 x i32], [23 x i32], i32, i32, ptr, i32, i32 }
%struct.FFHWBaseEncodeContext = type { ptr, ptr, ptr, i32, i32, i32, i32, i32, i32, ptr, ptr, ptr, ptr, ptr, ptr, ptr, ptr, [2 x ptr], i32, i64, i64, i64, i64, i64, i64, i64, [112 x i64], i32, i32, i32, i32, i32, i32, i32, i32, i32, i32, i32, i32, i32, i32, i32, i32, ptr, i32, ptr, i32, ptr }
%struct._VAEncMiscParameterRateControl = type { i32, i32, i32, i32, i32, i32, %union.anon.0, i32, i32, i32, i32, [4 x i32] }
%union.anon.0 = type { %struct.anon }
%struct.anon = type { i32 }
%struct._VAEncMiscParameterHRD = type { i32, i32, [4 x i32] }
%struct._VAEncMiscParameterFrameRate = type { i32, %union.anon.1, [4 x i32] }
%union.anon.1 = type { %struct.anon.2 }
%struct.anon.2 = type { i32 }
%struct._VAEncMiscParameterBufferMaxFrameSize = type { i32, i32, [4 x i32] }
%struct._VAEncMiscParameterBufferQualityLevel = type { i32, [4 x i32] }
%struct.AVVAAPIDeviceContext = type { ptr, i32 }
%struct.VAAPIEncodePicture = type { ptr, i32, i32, i32, ptr, ptr, i32, ptr, i32, ptr, i32, [1024 x i8], i64 }
%struct._VAEncPackedHeaderParameterBuffer = type { i32, i32, i8, [4 x i32] }

@.str.43 = private unnamed_addr constant [73 x i8] c"Failed to create parameter buffer for packed header (type %d): %d (%s).\0A\00", align 1
@.str.44 = private unnamed_addr constant [68 x i8] c"Failed to create data buffer for packed header (type %d): %d (%s).\0A\00", align 1
@.str.45 = private unnamed_addr constant [50 x i8] c"Packed header buffer (%d) is %#x/%#x (%zu bits).\0A\00", align 1

; Function Attrs: nounwind uwtable
define internal i32 @vaapi_encode_make_packed_header(ptr noundef %0, ptr noundef %1, i32 noundef %2, ptr noundef %3, i64 noundef %4) #0 {
  %6 = alloca i32, align 4
  %7 = alloca ptr, align 8
  %8 = alloca ptr, align 8
  %9 = alloca i32, align 4
  %10 = alloca ptr, align 8
  %11 = alloca i64, align 8
  %12 = alloca ptr, align 8
  %13 = alloca i32, align 4
  %14 = alloca i32, align 4
  %15 = alloca i32, align 4
  %16 = alloca ptr, align 8
  %17 = alloca %struct._VAEncPackedHeaderParameterBuffer, align 4
  %18 = alloca i32, align 4
  store ptr %0, ptr %7, align 8, !tbaa !4
  store ptr %1, ptr %8, align 8, !tbaa !234
  store i32 %2, ptr %9, align 4, !tbaa !37
  store ptr %3, ptr %10, align 8, !tbaa !133
  store i64 %4, ptr %11, align 8, !tbaa !102
  call void @llvm.lifetime.start.p0(i64 8, ptr %12) #10
  %19 = load ptr, ptr %7, align 8, !tbaa !4
  %20 = getelementptr inbounds nuw %struct.AVCodecContext, ptr %19, i32 0, i32 6
  %21 = load ptr, ptr %20, align 8, !tbaa !11
  store ptr %21, ptr %12, align 8, !tbaa !33
  call void @llvm.lifetime.start.p0(i64 4, ptr %13) #10
  call void @llvm.lifetime.start.p0(i64 4, ptr %14) #10
  call void @llvm.lifetime.start.p0(i64 4, ptr %15) #10
  call void @llvm.lifetime.start.p0(i64 8, ptr %16) #10
  call void @llvm.lifetime.start.p0(i64 28, ptr %17) #10
  %22 = getelementptr inbounds nuw %struct._VAEncPackedHeaderParameterBuffer, ptr %17, i32 0, i32 0
  %23 = load i32, ptr %9, align 4, !tbaa !37
  store i32 %23, ptr %22, align 4, !tbaa !327
  %24 = getelementptr inbounds nuw %struct._VAEncPackedHeaderParameterBuffer, ptr %17, i32 0, i32 1
  %25 = load i64, ptr %11, align 8, !tbaa !102
  %26 = trunc i64 %25 to i32
  store i32 %26, ptr %24, align 4, !tbaa !329
  %27 = getelementptr inbounds nuw %struct._VAEncPackedHeaderParameterBuffer, ptr %17, i32 0, i32 2
  store i8 1, ptr %27, align 4, !tbaa !330
  %28 = getelementptr i8, ptr %17, i64 9
  call void @llvm.memset.p0.i64(ptr align 1 %28, i8 0, i64 3, i1 false)
  %29 = getelementptr inbounds nuw %struct._VAEncPackedHeaderParameterBuffer, ptr %17, i32 0, i32 3
  call void @llvm.memset.p0.i64(ptr align 4 %29, i8 0, i64 16, i1 false)
  %30 = load ptr, ptr %8, align 8, !tbaa !234
  %31 = getelementptr inbounds nuw %struct.VAAPIEncodePicture, ptr %30, i32 0, i32 4
  %32 = load ptr, ptr %31, align 8, !tbaa !316
  %33 = load ptr, ptr %8, align 8, !tbaa !234
  %34 = getelementptr inbounds nuw %struct.VAAPIEncodePicture, ptr %33, i32 0, i32 3
  %35 = load i32, ptr %34, align 8, !tbaa !262
  %36 = add nsw i32 %35, 2
  %37 = sext i32 %36 to i64
  %38 = call ptr @av_realloc_array(ptr noundef %32, i64 noundef 4, i64 noundef %37)
  store ptr %38, ptr %16, align 8, !tbaa !226
  %39 = load ptr, ptr %16, align 8, !tbaa !226
  %40 = icmp ne ptr %39, null
  br i1 %40, label %42, label %41

41:                                               ; preds = %5
  store i32 -12, ptr %6, align 4
  store i32 1, ptr %18, align 4
  br label %112

42:                                               ; preds = %5
  %43 = load ptr, ptr %16, align 8, !tbaa !226
  %44 = load ptr, ptr %8, align 8, !tbaa !234
  %45 = getelementptr inbounds nuw %struct.VAAPIEncodePicture, ptr %44, i32 0, i32 4
  store ptr %43, ptr %45, align 8, !tbaa !316
  %46 = load ptr, ptr %12, align 8, !tbaa !33
  %47 = getelementptr inbounds nuw %struct.VAAPIEncodeContext, ptr %46, i32 0, i32 20
  %48 = load ptr, ptr %47, align 8, !tbaa !62
  %49 = getelementptr inbounds nuw %struct.AVVAAPIDeviceContext, ptr %48, i32 0, i32 0
  %50 = load ptr, ptr %49, align 8, !tbaa !75
  %51 = load ptr, ptr %12, align 8, !tbaa !33
  %52 = getelementptr inbounds nuw %struct.VAAPIEncodeContext, ptr %51, i32 0, i32 19
  %53 = load i32, ptr %52, align 8, !tbaa !57
  %54 = call i32 @vaCreateBuffer(ptr noundef %50, i32 noundef %53, i32 noundef 25, i32 noundef 28, i32 noundef 1, ptr noundef %17, ptr noundef %14)
  store i32 %54, ptr %13, align 4, !tbaa !37
  %55 = load i32, ptr %13, align 4, !tbaa !37
  %56 = icmp ne i32 %55, 0
  br i1 %56, label %57, label %63

57:                                               ; preds = %42
  %58 = load ptr, ptr %7, align 8, !tbaa !4
  %59 = load i32, ptr %9, align 4, !tbaa !37
  %60 = load i32, ptr %13, align 4, !tbaa !37
  %61 = load i32, ptr %13, align 4, !tbaa !37
  %62 = call ptr @vaErrorStr(i32 noundef %61)
  call void (ptr, i32, ptr, ...) @av_log(ptr noundef %58, i32 noundef 16, ptr noundef @.str.43, i32 noundef %59, i32 noundef %60, ptr noundef %62)
  store i32 -5, ptr %6, align 4
  store i32 1, ptr %18, align 4
  br label %112

63:                                               ; preds = %42
  %64 = load i32, ptr %14, align 4, !tbaa !37
  %65 = load ptr, ptr %8, align 8, !tbaa !234
  %66 = getelementptr inbounds nuw %struct.VAAPIEncodePicture, ptr %65, i32 0, i32 4
  %67 = load ptr, ptr %66, align 8, !tbaa !316
  %68 = load ptr, ptr %8, align 8, !tbaa !234
  %69 = getelementptr inbounds nuw %struct.VAAPIEncodePicture, ptr %68, i32 0, i32 3
  %70 = load i32, ptr %69, align 8, !tbaa !262
  %71 = add nsw i32 %70, 1
  store i32 %71, ptr %69, align 8, !tbaa !262
  %72 = sext i32 %70 to i64
  %73 = getelementptr inbounds i32, ptr %67, i64 %72
  store i32 %64, ptr %73, align 4, !tbaa !37
  %74 = load ptr, ptr %12, align 8, !tbaa !33
  %75 = getelementptr inbounds nuw %struct.VAAPIEncodeContext, ptr %74, i32 0, i32 20
  %76 = load ptr, ptr %75, align 8, !tbaa !62
  %77 = getelementptr inbounds nuw %struct.AVVAAPIDeviceContext, ptr %76, i32 0, i32 0
  %78 = load ptr, ptr %77, align 8, !tbaa !75
  %79 = load ptr, ptr %12, align 8, !tbaa !33
  %80 = getelementptr inbounds nuw %struct.VAAPIEncodeContext, ptr %79, i32 0, i32 19
  %81 = load i32, ptr %80, align 8, !tbaa !57
  %82 = load i64, ptr %11, align 8, !tbaa !102
  %83 = add i64 %82, 7
  %84 = udiv i64 %83, 8
  %85 = trunc i64 %84 to i32
  %86 = load ptr, ptr %10, align 8, !tbaa !133
  %87 = call i32 @vaCreateBuffer(ptr noundef %78, i32 noundef %81, i32 noundef 26, i32 noundef %85, i32 noundef 1, ptr noundef %86, ptr noundef %15)
  store i32 %87, ptr %13, align 4, !tbaa !37
  %88 = load i32, ptr %13, align 4, !tbaa !37
  %89 = icmp ne i32 %88, 0
  br i1 %89, label %90, label %96

90:                                               ; preds = %63
  %91 = load ptr, ptr %7, align 8, !tbaa !4
  %92 = load i32, ptr %9, align 4, !tbaa !37
  %93 = load i32, ptr %13, align 4, !tbaa !37
  %94 = load i32, ptr %13, align 4, !tbaa !37
  %95 = call ptr @vaErrorStr(i32 noundef %94)
  call void (ptr, i32, ptr, ...) @av_log(ptr noundef %91, i32 noundef 16, ptr noundef @.str.44, i32 noundef %92, i32 noundef %93, ptr noundef %95)
  store i32 -5, ptr %6, align 4
  store i32 1, ptr %18, align 4
  br label %112

96:                                               ; preds = %63
  %97 = load i32, ptr %15, align 4, !tbaa !37
  %98 = load ptr, ptr %8, align 8, !tbaa !234
  %99 = getelementptr inbounds nuw %struct.VAAPIEncodePicture, ptr %98, i32 0, i32 4
  %100 = load ptr, ptr %99, align 8, !tbaa !316
  %101 = load ptr, ptr %8, align 8, !tbaa !234
  %102 = getelementptr inbounds nuw %struct.VAAPIEncodePicture, ptr %101, i32 0, i32 3
  %103 = load i32, ptr %102, align 8, !tbaa !262
  %104 = add nsw i32 %103, 1
  store i32 %104, ptr %102, align 8, !tbaa !262
  %105 = sext i32 %103 to i64
  %106 = getelementptr inbounds i32, ptr %100, i64 %105
  store i32 %97, ptr %106, align 4, !tbaa !37
  %107 = load ptr, ptr %7, align 8, !tbaa !4
  %108 = load i32, ptr %9, align 4, !tbaa !37
  %109 = load i32, ptr %14, align 4, !tbaa !37
  %110 = load i32, ptr %15, align 4, !tbaa !37
  %111 = load i64, ptr %11, align 8, !tbaa !102
  call void (ptr, i32, ptr, ...) @av_log(ptr noundef %107, i32 noundef 48, ptr noundef @.str.45, i32 noundef %108, i32 noundef %109, i32 noundef %110, i64 noundef %111)
  store i32 0, ptr %6, align 4
  store i32 1, ptr %18, align 4
  br label %112

112:                                              ; preds = %96, %90, %57, %41
  call void @llvm.lifetime.end.p0(i64 28, ptr %17) #10
  call void @llvm.lifetime.end.p0(i64 8, ptr %16) #10
  call void @llvm.lifetime.end.p0(i64 4, ptr %15) #10
  call void @llvm.lifetime.end.p0(i64 4, ptr %14) #10
  call void @llvm.lifetime.end.p0(i64 4, ptr %13) #10
  call void @llvm.lifetime.end.p0(i64 8, ptr %12) #10
  %113 = load i32, ptr %6, align 4
  ret i32 %113
}