; Function Attrs: nounwind uwtable
define internal fastcc range(i32 -12, 1) i32 @vaapi_encode_make_packed_header(ptr noundef %0, ptr noundef captures(none) %1, i32 noundef %2, ptr noundef nonnull %3, i64 noundef %4) unnamed_addr #0 {
  %6 = alloca i32, align 4
  %7 = alloca i32, align 4
  %8 = alloca %struct._VAEncPackedHeaderParameterBuffer, align 4
  %9 = getelementptr inbounds nuw i8, ptr %0, i64 32
  %10 = load ptr, ptr %9, align 8, !tbaa !4
  call void @llvm.lifetime.start.p0(i64 4, ptr nonnull %6) #9
  call void @llvm.lifetime.start.p0(i64 4, ptr nonnull %7) #9
  call void @llvm.lifetime.start.p0(i64 28, ptr nonnull %8) #9
  store i32 %2, ptr %8, align 4, !tbaa !265
  %11 = getelementptr inbounds nuw i8, ptr %8, i64 4
  %12 = trunc i64 %4 to i32
  store i32 %12, ptr %11, align 4, !tbaa !267
  %13 = getelementptr inbounds nuw i8, ptr %8, i64 8
  store i8 1, ptr %13, align 4, !tbaa !268
  %14 = getelementptr inbounds nuw i8, ptr %8, i64 9
  %15 = getelementptr inbounds nuw i8, ptr %1, i64 24
  call void @llvm.memset.p0.i64(ptr noundef nonnull align 1 dereferenceable(19) %14, i8 0, i64 19, i1 false)
  %16 = load ptr, ptr %15, align 8, !tbaa !254
  %17 = getelementptr inbounds nuw i8, ptr %1, i64 16
  %18 = load i32, ptr %17, align 8, !tbaa !220
  %19 = add nsw i32 %18, 2
  %20 = sext i32 %19 to i64
  %21 = tail call ptr @av_realloc_array(ptr noundef %16, i64 noundef 4, i64 noundef %20) #9
  %.not = icmp eq ptr %21, null
  br i1 %.not, label %55, label %22

22:                                               ; preds = %5
  store ptr %21, ptr %15, align 8, !tbaa !254
  %23 = getelementptr inbounds nuw i8, ptr %10, i64 1312
  %24 = load ptr, ptr %23, align 8, !tbaa !52
  %25 = load ptr, ptr %24, align 8, !tbaa !65
  %26 = getelementptr inbounds nuw i8, ptr %10, i64 1304
  %27 = load i32, ptr %26, align 8, !tbaa !47
  %28 = call i32 @vaCreateBuffer(ptr noundef %25, i32 noundef %27, i32 noundef 25, i32 noundef 28, i32 noundef 1, ptr noundef nonnull %8, ptr noundef nonnull %6) #9
  %.not34 = icmp eq i32 %28, 0
  br i1 %.not34, label %31, label %29

29:                                               ; preds = %22
  %30 = call ptr @vaErrorStr(i32 noundef %28) #9
  call void (ptr, i32, ptr, ...) @av_log(ptr noundef nonnull %0, i32 noundef 16, ptr noundef nonnull @.str.43, i32 noundef %2, i32 noundef %28, ptr noundef %30) #9
  br label %55

31:                                               ; preds = %22
  %32 = load i32, ptr %6, align 4, !tbaa !109
  %33 = load ptr, ptr %15, align 8, !tbaa !254
  %34 = load i32, ptr %17, align 8, !tbaa !220
  %35 = add nsw i32 %34, 1
  store i32 %35, ptr %17, align 8, !tbaa !220
  %36 = sext i32 %34 to i64
  %37 = getelementptr inbounds i32, ptr %33, i64 %36
  store i32 %32, ptr %37, align 4, !tbaa !109
  %38 = load ptr, ptr %23, align 8, !tbaa !52
  %39 = load ptr, ptr %38, align 8, !tbaa !65
  %40 = load i32, ptr %26, align 8, !tbaa !47
  %41 = add i64 %4, 7
  %42 = lshr i64 %41, 3
  %43 = trunc i64 %42 to i32
  %44 = call i32 @vaCreateBuffer(ptr noundef %39, i32 noundef %40, i32 noundef 26, i32 noundef %43, i32 noundef 1, ptr noundef nonnull %3, ptr noundef nonnull %7) #9
  %.not35 = icmp eq i32 %44, 0
  br i1 %.not35, label %47, label %45

45:                                               ; preds = %31
  %46 = call ptr @vaErrorStr(i32 noundef %44) #9
  call void (ptr, i32, ptr, ...) @av_log(ptr noundef nonnull %0, i32 noundef 16, ptr noundef nonnull @.str.44, i32 noundef %2, i32 noundef %44, ptr noundef %46) #9
  br label %55

47:                                               ; preds = %31
  %48 = load i32, ptr %7, align 4, !tbaa !109
  %49 = load ptr, ptr %15, align 8, !tbaa !254
  %50 = load i32, ptr %17, align 8, !tbaa !220
  %51 = add nsw i32 %50, 1
  store i32 %51, ptr %17, align 8, !tbaa !220
  %52 = sext i32 %50 to i64
  %53 = getelementptr inbounds i32, ptr %49, i64 %52
  store i32 %48, ptr %53, align 4, !tbaa !109
  %54 = load i32, ptr %6, align 4, !tbaa !109
  call void (ptr, i32, ptr, ...) @av_log(ptr noundef nonnull %0, i32 noundef 48, ptr noundef nonnull @.str.45, i32 noundef %2, i32 noundef %54, i32 noundef %48, i64 noundef %4) #9
  br label %55

55:                                               ; preds = %5, %47, %45, %29
  %.0 = phi i32 [ -5, %29 ], [ -5, %45 ], [ 0, %47 ], [ -12, %5 ]
  call void @llvm.lifetime.end.p0(i64 28, ptr nonnull %8) #9
  call void @llvm.lifetime.end.p0(i64 4, ptr nonnull %7) #9
  call void @llvm.lifetime.end.p0(i64 4, ptr nonnull %6) #9
  ret i32 %.0
}